target datalayout = "e-m:e-p270:32:32-p271:32:32-p272:64:64-i64:64-i128:128-f80:128-n8:16:32:64-S128"
target triple = "x86_64-pc-linux-gnu"

%struct.Sfm_Dec_t_ = type { ptr, ptr, ptr, ptr, ptr, %struct.Vec_Int_t_, %struct.Vec_Wrd_t_, %struct.Vec_Wec_t_, %struct.Vec_Ptr_t_, i32, i32, i32, i32, [4 x i32], [4 x i32], i32, i32, i32, i32, i32, i32, i32, i32, i32, ptr, i64, %struct.Vec_Int_t_, %struct.Vec_Int_t_, %struct.Vec_Wec_t_, %struct.Vec_Int_t_, %struct.Vec_Int_t_, %struct.Vec_Int_t_, %struct.Vec_Int_t_, %struct.Vec_Wrd_t_, %struct.Vec_Wrd_t_, %struct.Vec_Ptr_t_, %struct.Vec_Ptr_t_, ptr, %struct.Vec_Wec_t_, [2 x %struct.Vec_Int_t_], [2 x %struct.Vec_Wrd_t_], [2 x i32], [2 x i32], i32, i32, [8 x [4 x i64]], [8 x ptr], [8 x ptr], %struct.Vec_Int_t_, %struct.Vec_Int_t_, %struct.Vec_Int_t_, %struct.Vec_Int_t_, %struct.Vec_Int_t_, %struct.Vec_Int_t_, %struct.Vec_Int_t_, [4 x i64], i32, i64, i64, i64, i64, i64, i64, i64, i64, i64, i64, i64, i32, i32, i32, i32, i32, i32, i32, i32, i32, i32, i32, i32, i32, i32, i32, i32, i32, i32, i32, i32, i32, i64, i64, [9 x i32], [9 x i32] }
%struct.Vec_Wrd_t_ = type { i32, i32, ptr }
%struct.Vec_Ptr_t_ = type { i32, i32, ptr }
%struct.Vec_Wec_t_ = type { i32, i32, ptr }
%struct.Vec_Int_t_ = type { i32, i32, ptr }

; Function Attrs: inlinehint nounwind uwtable
define internal i32 @Abc_TtCountOnes(i64 noundef %0) #5 {
  %2 = alloca i64, align 8
  store i64 %0, ptr %2, align 8, !tbaa !87
  %3 = load i64, ptr %2, align 8, !tbaa !87
  %4 = load i64, ptr %2, align 8, !tbaa !87
  %5 = lshr i64 %4, 1
  %6 = and i64 %5, 6148914691236517205
  %7 = sub i64 %3, %6
  store i64 %7, ptr %2, align 8, !tbaa !87
  %8 = load i64, ptr %2, align 8, !tbaa !87
  %9 = and i64 %8, 3689348814741910323
  %10 = load i64, ptr %2, align 8, !tbaa !87
  %11 = lshr i64 %10, 2
  %12 = and i64 %11, 3689348814741910323
  %13 = add i64 %9, %12
  store i64 %13, ptr %2, align 8, !tbaa !87
  %14 = load i64, ptr %2, align 8, !tbaa !87
  %15 = load i64, ptr %2, align 8, !tbaa !87
  %16 = lshr i64 %15, 4
  %17 = add i64 %14, %16
  %18 = and i64 %17, 1085102592571150095
  store i64 %18, ptr %2, align 8, !tbaa !87
  %19 = load i64, ptr %2, align 8, !tbaa !87
  %20 = load i64, ptr %2, align 8, !tbaa !87
  %21 = lshr i64 %20, 8
  %22 = add i64 %19, %21
  store i64 %22, ptr %2, align 8, !tbaa !87
  %23 = load i64, ptr %2, align 8, !tbaa !87
  %24 = load i64, ptr %2, align 8, !tbaa !87
  %25 = lshr i64 %24, 16
  %26 = add i64 %23, %25
  store i64 %26, ptr %2, align 8, !tbaa !87
  %27 = load i64, ptr %2, align 8, !tbaa !87
  %28 = load i64, ptr %2, align 8, !tbaa !87
  %29 = lshr i64 %28, 32
  %30 = add i64 %27, %29
  store i64 %30, ptr %2, align 8, !tbaa !87
  %31 = load i64, ptr %2, align 8, !tbaa !87
  %32 = and i64 %31, 255
  %33 = trunc i64 %32 to i32
  ret i32 %33
}

; Function Attrs: inlinehint nounwind uwtable
define internal i32 @Abc_TtCountOnes2(i64 noundef %0) #5 {
  %2 = alloca i64, align 8
  store i64 %0, ptr %2, align 8, !tbaa !87
  %3 = load i64, ptr %2, align 8, !tbaa !87
  %4 = icmp ne i64 %3, 0
  br i1 %4, label %5, label %8

5:                                                ; preds = %1
  %6 = load i64, ptr %2, align 8, !tbaa !87
  %7 = call i32 @Abc_TtCountOnes(i64 noundef %6)
  br label %9

8:                                                ; preds = %1
  br label %9

9:                                                ; preds = %8, %5
  %10 = phi i32 [ %7, %5 ], [ 0, %8 ]
  ret i32 %10
}

; Function Attrs: inlinehint nounwind uwtable
define internal ptr @Vec_WrdEntryP(ptr noundef %0, i32 noundef %1) #5 {
  %3 = alloca ptr, align 8
  %4 = alloca i32, align 4
  store ptr %0, ptr %3, align 8, !tbaa !102
  store i32 %1, ptr %4, align 4, !tbaa !79
  %5 = load ptr, ptr %3, align 8, !tbaa !102
  %6 = getelementptr inbounds nuw %struct.Vec_Wrd_t_, ptr %5, i32 0, i32 2
  %7 = load ptr, ptr %6, align 8, !tbaa !104
  %8 = load i32, ptr %4, align 4, !tbaa !79
  %9 = sext i32 %8 to i64
  %10 = getelementptr inbounds i64, ptr %7, i64 %9
  ret ptr %10
}

; Function Attrs: inlinehint nounwind uwtable
define internal i32 @Abc_TtCountOnesVecMask(ptr noundef %0, ptr noundef %1, i32 noundef %2, i32 noundef %3) #5 {
  %5 = alloca ptr, align 8
  %6 = alloca ptr, align 8
  %7 = alloca i32, align 4
  %8 = alloca i32, align 4
  %9 = alloca i32, align 4
  %10 = alloca i32, align 4
  store ptr %0, ptr %5, align 8, !tbaa !80
  store ptr %1, ptr %6, align 8, !tbaa !80
  store i32 %2, ptr %7, align 4, !tbaa !79
  store i32 %3, ptr %8, align 4, !tbaa !79
  call void @llvm.lifetime.start.p0(i64 4, ptr %9) #12
  call void @llvm.lifetime.start.p0(i64 4, ptr %10) #12
  store i32 0, ptr %10, align 4, !tbaa !79
  %11 = load i32, ptr %8, align 4, !tbaa !79
  %12 = icmp ne i32 %11, 0
  br i1 %12, label %13, label %38

13:                                               ; preds = %4
  store i32 0, ptr %9, align 4, !tbaa !79
  br label %14

14:                                               ; preds = %34, %13
  %15 = load i32, ptr %9, align 4, !tbaa !79
  %16 = load i32, ptr %7, align 4, !tbaa !79
  %17 = icmp slt i32 %15, %16
  br i1 %17, label %18, label %37

18:                                               ; preds = %14
  %19 = load ptr, ptr %6, align 8, !tbaa !80
  %20 = load i32, ptr %9, align 4, !tbaa !79
  %21 = sext i32 %20 to i64
  %22 = getelementptr inbounds i64, ptr %19, i64 %21
  %23 = load i64, ptr %22, align 8, !tbaa !87
  %24 = load ptr, ptr %5, align 8, !tbaa !80
  %25 = load i32, ptr %9, align 4, !tbaa !79
  %26 = sext i32 %25 to i64
  %27 = getelementptr inbounds i64, ptr %24, i64 %26
  %28 = load i64, ptr %27, align 8, !tbaa !87
  %29 = xor i64 %28, -1
  %30 = and i64 %23, %29
  %31 = call i32 @Abc_TtCountOnes2(i64 noundef %30)
  %32 = load i32, ptr %10, align 4, !tbaa !79
  %33 = add nsw i32 %32, %31
  store i32 %33, ptr %10, align 4, !tbaa !79
  br label %34

34:                                               ; preds = %18
  %35 = load i32, ptr %9, align 4, !tbaa !79
  %36 = add nsw i32 %35, 1
  store i32 %36, ptr %9, align 4, !tbaa !79
  br label %14, !llvm.loop !123

37:                                               ; preds = %14
  br label %62

38:                                               ; preds = %4
  store i32 0, ptr %9, align 4, !tbaa !79
  br label %39

39:                                               ; preds = %58, %38
  %40 = load i32, ptr %9, align 4, !tbaa !79
  %41 = load i32, ptr %7, align 4, !tbaa !79
  %42 = icmp slt i32 %40, %41
  br i1 %42, label %43, label %61

43:                                               ; preds = %39
  %44 = load ptr, ptr %6, align 8, !tbaa !80
  %45 = load i32, ptr %9, align 4, !tbaa !79
  %46 = sext i32 %45 to i64
  %47 = getelementptr inbounds i64, ptr %44, i64 %46
  %48 = load i64, ptr %47, align 8, !tbaa !87
  %49 = load ptr, ptr %5, align 8, !tbaa !80
  %50 = load i32, ptr %9, align 4, !tbaa !79
  %51 = sext i32 %50 to i64
  %52 = getelementptr inbounds i64, ptr %49, i64 %51
  %53 = load i64, ptr %52, align 8, !tbaa !87
  %54 = and i64 %48, %53
  %55 = call i32 @Abc_TtCountOnes2(i64 noundef %54)
  %56 = load i32, ptr %10, align 4, !tbaa !79
  %57 = add nsw i32 %56, %55
  store i32 %57, ptr %10, align 4, !tbaa !79
  br label %58

58:                                               ; preds = %43
  %59 = load i32, ptr %9, align 4, !tbaa !79
  %60 = add nsw i32 %59, 1
  store i32 %60, ptr %9, align 4, !tbaa !79
  br label %39, !llvm.loop !124

61:                                               ; preds = %39
  br label %62

62:                                               ; preds = %61, %37
  %63 = load i32, ptr %10, align 4, !tbaa !79
  call void @llvm.lifetime.end.p0(i64 4, ptr %10) #12
  call void @llvm.lifetime.end.p0(i64 4, ptr %9) #12
  ret i32 %63
}

; Function Attrs: inlinehint nounwind uwtable
define internal i32 @Abc_LitIsCompl(i32 noundef %0) #5 {
  %2 = alloca i32, align 4
  store i32 %0, ptr %2, align 4, !tbaa !79
  %3 = load i32, ptr %2, align 4, !tbaa !79
  %4 = and i32 %3, 1
  ret i32 %4
}

; Function Attrs: inlinehint nounwind uwtable
define internal ptr @Sfm_DecDivPats(ptr noundef %0, i32 noundef %1, i32 noundef %2) #5 {
  %4 = alloca ptr, align 8
  %5 = alloca i32, align 4
  %6 = alloca i32, align 4
  store ptr %0, ptr %4, align 8, !tbaa !33
  store i32 %1, ptr %5, align 4, !tbaa !79
  store i32 %2, ptr %6, align 4, !tbaa !79
  %7 = load ptr, ptr %4, align 8, !tbaa !33
  %8 = getelementptr inbounds nuw %struct.Sfm_Dec_t_, ptr %7, i32 0, i32 40
  %9 = load i32, ptr %6, align 4, !tbaa !79
  %10 = sext i32 %9 to i64
  %11 = getelementptr inbounds [2 x %struct.Vec_Wrd_t_], ptr %8, i64 0, i64 %10
  %12 = load i32, ptr %5, align 4, !tbaa !79
  %13 = mul nsw i32 %12, 8
  %14 = call ptr @Vec_WrdEntryP(ptr noundef %11, i32 noundef %13)
  ret ptr %14
}

; Function Attrs: inlinehint nounwind uwtable
define internal i32 @Abc_Lit2Var(i32 noundef %0) #5 {
  %2 = alloca i32, align 4
  store i32 %0, ptr %2, align 4, !tbaa !79
  %3 = load i32, ptr %2, align 4, !tbaa !79
  %4 = ashr i32 %3, 1
  ret i32 %4
}

; Function Attrs: nounwind uwtable
define i32 @Sfm_DecFindCost(ptr noundef %0, i32 noundef %1, i32 noundef %2, ptr noundef %3) #0 {
  %5 = alloca ptr, align 8
  %6 = alloca i32, align 4
  %7 = alloca i32, align 4
  %8 = alloca ptr, align 8
  %9 = alloca ptr, align 8
  store ptr %0, ptr %5, align 8, !tbaa !33
  store i32 %1, ptr %6, align 4, !tbaa !79
  store i32 %2, ptr %7, align 4, !tbaa !79
  store ptr %3, ptr %8, align 8, !tbaa !80
  call void @llvm.lifetime.start.p0(i64 8, ptr %9) #12
  %10 = load ptr, ptr %5, align 8, !tbaa !33
  %11 = load i32, ptr %7, align 4, !tbaa !79
  %12 = call i32 @Abc_Lit2Var(i32 noundef %11)
  %13 = load i32, ptr %6, align 4, !tbaa !79
  %14 = icmp ne i32 %13, 0
  %15 = xor i1 %14, true
  %16 = zext i1 %15 to i32
  %17 = call ptr @Sfm_DecDivPats(ptr noundef %10, i32 noundef %12, i32 noundef %16)
  store ptr %17, ptr %9, align 8, !tbaa !80
  %18 = load ptr, ptr %9, align 8, !tbaa !80
  %19 = load ptr, ptr %8, align 8, !tbaa !80
  %20 = load ptr, ptr %5, align 8, !tbaa !33
  %21 = getelementptr inbounds nuw %struct.Sfm_Dec_t_, ptr %20, i32 0, i32 42
  %22 = load i32, ptr %6, align 4, !tbaa !79
  %23 = icmp ne i32 %22, 0
  %24 = xor i1 %23, true
  %25 = zext i1 %24 to i32
  %26 = sext i32 %25 to i64
  %27 = getelementptr inbounds [2 x i32], ptr %21, i64 0, i64 %26
  %28 = load i32, ptr %27, align 4, !tbaa !79
  %29 = load i32, ptr %7, align 4, !tbaa !79
  %30 = call i32 @Abc_LitIsCompl(i32 noundef %29)
  %31 = call i32 @Abc_TtCountOnesVecMask(ptr noundef %18, ptr noundef %19, i32 noundef %28, i32 noundef %30)
  call void @llvm.lifetime.end.p0(i64 8, ptr %9) #12
  ret i32 %31
}