; Function Attrs: nofree norecurse nosync nounwind memory(read, inaccessiblemem: none) uwtable
define i32 @Sfm_DecFindCost(ptr noundef readonly captures(none) %0, i32 noundef %1, i32 noundef %2, ptr noundef readonly captures(none) %3) local_unnamed_addr #8 {
  %.not = icmp eq i32 %1, 0
  %5 = getelementptr inbounds nuw i8, ptr %0, i64 440
  %6 = shl nsw i32 %2, 2
  %7 = and i32 %6, -8
  %.offs.i = select i1 %.not, i64 24, i64 8
  %8 = getelementptr i8, ptr %5, i64 %.offs.i
  %.val.i = load ptr, ptr %8, align 8, !tbaa !87
  %9 = sext i32 %7 to i64
  %10 = getelementptr inbounds i64, ptr %.val.i, i64 %9
  %11 = getelementptr inbounds nuw i8, ptr %0, i64 480
  %12 = zext i1 %.not to i64
  %13 = getelementptr inbounds nuw [2 x i32], ptr %11, i64 0, i64 %12
  %14 = load i32, ptr %13, align 4, !tbaa !96
  %15 = and i32 %2, 1
  %.not.i = icmp eq i32 %15, 0
  %16 = icmp sgt i32 %14, 0
  br i1 %.not.i, label %.preheader.i, label %.preheader21.i

.preheader21.i:                                   ; preds = %4
  br i1 %16, label %.lr.ph.preheader.i, label %Abc_TtCountOnesVecMask.exit

.lr.ph.preheader.i:                               ; preds = %.preheader21.i
  %wide.trip.count.i = zext nneg i32 %14 to i64
  br label %.lr.ph.i

.preheader.i:                                     ; preds = %4
  br i1 %16, label %.lr.ph27.preheader.i, label %Abc_TtCountOnesVecMask.exit

.lr.ph27.preheader.i:                             ; preds = %.preheader.i
  %wide.trip.count35.i = zext nneg i32 %14 to i64
  br label %.lr.ph27.i

.lr.ph.i:                                         ; preds = %Abc_TtCountOnes2.exit.i, %.lr.ph.preheader.i
  %indvars.iv.i = phi i64 [ 0, %.lr.ph.preheader.i ], [ %indvars.iv.next.i, %Abc_TtCountOnes2.exit.i ]
  %.024.i = phi i32 [ 0, %.lr.ph.preheader.i ], [ %43, %Abc_TtCountOnes2.exit.i ]
  %17 = getelementptr inbounds nuw i64, ptr %3, i64 %indvars.iv.i
  %18 = load i64, ptr %17, align 8, !tbaa !73
  %19 = getelementptr inbounds nuw i64, ptr %10, i64 %indvars.iv.i
  %20 = load i64, ptr %19, align 8, !tbaa !73
  %21 = xor i64 %20, -1
  %22 = and i64 %18, %21
  %.not.i.i = icmp eq i64 %22, 0
  br i1 %.not.i.i, label %Abc_TtCountOnes2.exit.i, label %23

23:                                               ; preds = %.lr.ph.i
  %24 = lshr i64 %22, 1
  %25 = and i64 %24, 6148914691236517205
  %26 = sub i64 %22, %25
  %27 = and i64 %26, 3689348814741910323
  %28 = lshr i64 %26, 2
  %29 = and i64 %28, 3689348814741910323
  %30 = add nuw nsw i64 %29, %27
  %31 = lshr i64 %30, 4
  %32 = add nuw nsw i64 %31, %30
  %33 = and i64 %32, 1085102592571150095
  %34 = lshr i64 %33, 8
  %35 = add nuw nsw i64 %34, %33
  %36 = lshr i64 %35, 16
  %37 = add nuw nsw i64 %36, %35
  %38 = lshr i64 %37, 32
  %39 = add nuw nsw i64 %38, %37
  %40 = trunc i64 %39 to i32
  %41 = and i32 %40, 255
  br label %Abc_TtCountOnes2.exit.i

Abc_TtCountOnes2.exit.i:                          ; preds = %23, %.lr.ph.i
  %42 = phi i32 [ %41, %23 ], [ 0, %.lr.ph.i ]
  %43 = add nuw nsw i32 %42, %.024.i
  %indvars.iv.next.i = add nuw nsw i64 %indvars.iv.i, 1
  %exitcond.not.i = icmp eq i64 %indvars.iv.next.i, %wide.trip.count.i
  br i1 %exitcond.not.i, label %Abc_TtCountOnesVecMask.exit, label %.lr.ph.i, !llvm.loop !103

.lr.ph27.i:                                       ; preds = %Abc_TtCountOnes2.exit20.i, %.lr.ph27.preheader.i
  %indvars.iv32.i = phi i64 [ 0, %.lr.ph27.preheader.i ], [ %indvars.iv.next33.i, %Abc_TtCountOnes2.exit20.i ]
  %.226.i = phi i32 [ 0, %.lr.ph27.preheader.i ], [ %69, %Abc_TtCountOnes2.exit20.i ]
  %44 = getelementptr inbounds nuw i64, ptr %3, i64 %indvars.iv32.i
  %45 = load i64, ptr %44, align 8, !tbaa !73
  %46 = getelementptr inbounds nuw i64, ptr %10, i64 %indvars.iv32.i
  %47 = load i64, ptr %46, align 8, !tbaa !73
  %48 = and i64 %47, %45
  %.not.i19.i = icmp eq i64 %48, 0
  br i1 %.not.i19.i, label %Abc_TtCountOnes2.exit20.i, label %49

49:                                               ; preds = %.lr.ph27.i
  %50 = lshr i64 %48, 1
  %51 = and i64 %50, 6148914691236517205
  %52 = sub i64 %48, %51
  %53 = and i64 %52, 3689348814741910323
  %54 = lshr i64 %52, 2
  %55 = and i64 %54, 3689348814741910323
  %56 = add nuw nsw i64 %55, %53
  %57 = lshr i64 %56, 4
  %58 = add nuw nsw i64 %57, %56
  %59 = and i64 %58, 1085102592571150095
  %60 = lshr i64 %59, 8
  %61 = add nuw nsw i64 %60, %59
  %62 = lshr i64 %61, 16
  %63 = add nuw nsw i64 %62, %61
  %64 = lshr i64 %63, 32
  %65 = add nuw nsw i64 %64, %63
  %66 = trunc i64 %65 to i32
  %67 = and i32 %66, 255
  br label %Abc_TtCountOnes2.exit20.i

Abc_TtCountOnes2.exit20.i:                        ; preds = %49, %.lr.ph27.i
  %68 = phi i32 [ %67, %49 ], [ 0, %.lr.ph27.i ]
  %69 = add nuw nsw i32 %68, %.226.i
  %indvars.iv.next33.i = add nuw nsw i64 %indvars.iv32.i, 1
  %exitcond36.not.i = icmp eq i64 %indvars.iv.next33.i, %wide.trip.count35.i
  br i1 %exitcond36.not.i, label %Abc_TtCountOnesVecMask.exit, label %.lr.ph27.i, !llvm.loop !104

Abc_TtCountOnesVecMask.exit:                      ; preds = %Abc_TtCountOnes2.exit.i, %Abc_TtCountOnes2.exit20.i, %.preheader21.i, %.preheader.i
  %.1.i = phi i32 [ 0, %.preheader.i ], [ 0, %.preheader21.i ], [ %69, %Abc_TtCountOnes2.exit20.i ], [ %43, %Abc_TtCountOnes2.exit.i ]
  ret i32 %.1.i
}